Certificate:
    Data:
        Version: 3 (0x2)
        Serial Number:
            cc:cc:aa:aa:77:77:00:00
        Signature Algorithm: sha256WithRSAEncryption
        Issuer: C=PK, ST=I-SELF, O=AUTHORITY, CN=docking
        Validity
            Not Before: Nov  6 07:48:47 2022 GMT
            Not After : Nov  5 07:48:47 2024 GMT
        Subject: C=PK, ST=I-SELF, O=docking, CN=authelia
        Subject Public Key Info:
            Public Key Algorithm: rsaEncryption
                RSA Public-Key: (2048 bit)
                Modulus:
                    00:fe:fc:39:50:ee:20:bc:71:b4:1f:78:f4:2d:66:
                    35:40:93:e3:92:3f:e3:99:06:7e:8f:a8:90:60:35:
                    92:ec:41:15:f2:df:7f:8a:89:8b:ab:4c:fe:8c:76:
                    72:94:31:23:33:f7:d1:51:79:6f:39:b4:d6:c9:46:
                    d9:2b:4e:7f:af:e6:2e:c1:29:65:68:ac:ea:92:16:
                    78:1e:09:3d:ec:8d:e1:35:14:3e:55:7f:e8:87:69:
                    9c:06:f6:41:6a:96:a6:7a:ad:f1:c2:91:77:83:4f:
                    db:f9:61:c2:86:67:89:7c:41:fc:f6:92:ec:6a:74:
                    02:f4:fb:ba:13:91:44:07:f6:09:f3:b8:12:e7:ff:
                    30:d0:f3:df:a3:79:28:2d:a6:45:e0:86:c2:dc:d8:
                    bd:a9:53:36:0c:3c:79:e0:1a:d0:ee:86:1d:b8:be:
                    58:ed:07:41:8a:e9:7f:bd:1e:81:e6:ac:be:d6:ad:
                    71:46:4b:26:76:2a:ce:da:01:9b:a1:89:e9:ed:96:
                    75:f3:fb:97:67:01:a7:66:18:e5:05:8e:e0:59:be:
                    44:3c:2d:a0:04:d7:1f:91:0c:8a:27:cc:ab:25:4b:
                    21:3b:4a:84:07:f4:a4:fe:98:6b:d9:f2:d8:0f:d0:
                    22:01:ba:14:ac:b9:fe:a6:53:ff:66:14:ba:7a:10:
                    c8:1f
                Exponent: 65537 (0x10001)
        X509v3 extensions:
            X509v3 Basic Constraints: 
                CA:FALSE
            X509v3 Subject Key Identifier: 
                D8:49:5F:CC:86:66:24:13:38:D0:BF:53:24:77:8E:7F:50:D1:DA:98
            X509v3 Extended Key Usage: 
                TLS Web Server Authentication
            X509v3 Key Usage: 
                Digital Signature, Key Encipherment
    Signature Algorithm: sha256WithRSAEncryption
         96:b4:09:f0:b2:9e:b3:c3:31:ac:f8:c0:fb:5e:6d:aa:f0:8b:
         d4:99:13:75:22:c3:15:4f:11:65:10:94:97:43:31:dc:1b:dc:
         d1:06:cf:a0:4b:96:d0:f3:28:84:70:08:c3:f3:ff:4f:7a:51:
         42:ce:53:c0:e5:4f:fe:49:f6:d9:89:e4:14:da:a2:ed:60:de:
         4b:c9:a4:10:8e:69:bc:b2:d7:97:94:bd:35:03:1f:bc:c3:a6:
         92:8d:29:ca:42:e5:95:3d:32:37:72:d3:4b:bb:33:cb:60:de:
         58:82:4a:33:d5:a7:a4:b3:55:b2:c6:a4:75:74:2f:c0:ba:d8:
         d7:bc:71:f8:56:e0:64:6a:de:db:c1:2f:df:a0:1a:5d:86:b3:
         88:1d:19:c6:93:40:5b:08:ef:63:84:6f:b1:0d:bf:aa:63:02:
         17:a0:69:c1:d0:8d:1d:fb:2b:ab:29:7d:52:74:83:d2:65:b8:
         00:d5:ca:14:a3:9f:b8:8f:a9:4c:02:63:71:2d:1b:be:f6:72:
         bf:b4:44:95:f3:66:09:d5:1e:39:13:7c:7b:3c:87:65:c7:97:
         67:55:4f:83:e1:91:ba:bc:4f:6a:1c:7a:1c:5e:a7:41:dc:2d:
         42:49:9f:67:9c:08:29:5d:f5:48:6a:9b:18:a9:3d:52:2e:52:
         b6:b9:d3:64:52:a3:6c:75:f1:d6:d2:5f:c5:d8:56:46:01:d0:
         84:8c:b1:0c:c4:c7:51:18:fa:1c:14:55:be:c1:0b:71:b6:b1:
         c1:76:83:6f:10:d2:d7:e7:d2:a9:dc:f6:f0:87:e5:99:aa:5e:
         cc:99:fa:43:cf:8b:eb:a4:bb:64:f9:5e:12:4b:97:3d:74:a5:
         88:2d:f7:b0:dd:b5:8b:ec:42:33:df:db:4e:2a:35:87:8d:46:
         a6:78:1e:d8:7c:4c:48:87:91:56:cf:1a:05:74:ce:35:ad:16:
         52:d5:47:6e:08:cd:18:82:7f:ba:02:b4:8b:55:60:62:01:d0:
         1a:ce:d2:f1:59:46:f6:64:07:1d:7b:4c:c0:03:bc:b5:1b:dc:
         f5:ac:24:3c:fb:6f:fb:8e:66:03:9b:e8:88:ec:50:51:84:56:
         15:7f:6e:6e:0f:92:c9:5d:81:78:aa:f8:a6:3b:35:75:5b:d6:
         ba:f4:a4:5c:69:46:1e:7a:1c:e5:f1:cc:99:18:ed:80:a7:a9:
         be:e1:c0:5f:77:c3:74:91:32:31:9b:77:23:a8:7f:9c:7d:97:
         09:8e:35:ab:f4:10:f5:54:33:23:9d:a2:ea:6e:d3:40:d1:01:
         9c:5a:7e:ec:1a:3b:05:5f:c1:09:88:7a:fd:04:1d:c5:df:63:
         57:8c:a1:5b:64:60:7b:7b
-----BEGIN CERTIFICATE-----
MIIEWDCCAkCgAwIBAgIJAMzMqqp3dwAAMA0GCSqGSIb3DQEBCwUAMEQxCzAJBgNV
BAYTAlBLMQ8wDQYDVQQIEwZJLVNFTEYxEjAQBgNVBAoTCUFVVEhPUklUWTEQMA4G
A1UEAxMHZG9ja2luZzAeFw0yMjExMDYwNzQ4NDdaFw0yNDExMDUwNzQ4NDdaMEMx
CzAJBgNVBAYTAlBLMQ8wDQYDVQQIEwZJLVNFTEYxEDAOBgNVBAoTB2RvY2tpbmcx
ETAPBgNVBAMTCGF1dGhlbGlhMIIBIjANBgkqhkiG9w0BAQEFAAOCAQ8AMIIBCgKC
AQEA/vw5UO4gvHG0H3j0LWY1QJPjkj/jmQZ+j6iQYDWS7EEV8t9/iomLq0z+jHZy
lDEjM/fRUXlvObTWyUbZK05/r+YuwSllaKzqkhZ4Hgk97I3hNRQ+VX/oh2mcBvZB
apameq3xwpF3g0/b+WHChmeJfEH89pLsanQC9Pu6E5FEB/YJ87gS5/8w0PPfo3ko
LaZF4IbC3Ni9qVM2DDx54BrQ7oYduL5Y7QdBiul/vR6B5qy+1q1xRksmdirO2gGb
oYnp7ZZ18/uXZwGnZhjlBY7gWb5EPC2gBNcfkQyKJ8yrJUshO0qEB/Sk/phr2fLY
D9AiAboUrLn+plP/ZhS6ehDIHwIDAQABo04wTDAJBgNVHRMEAjAAMB0GA1UdDgQW
BBTYSV/MhmYkEzjQv1Mkd45/UNHamDATBgNVHSUEDDAKBggrBgEFBQcDATALBgNV
HQ8EBAMCBaAwDQYJKoZIhvcNAQELBQADggIBAJa0CfCynrPDMaz4wPtebarwi9SZ
E3UiwxVPEWUQlJdDMdwb3NEGz6BLltDzKIRwCMPz/096UULOU8DlT/5J9tmJ5BTa
ou1g3kvJpBCOabyy15eUvTUDH7zDppKNKcpC5ZU9Mjdy00u7M8tg3liCSjPVp6Sz
VbLGpHV0L8C62Ne8cfhW4GRq3tvBL9+gGl2Gs4gdGcaTQFsI72OEb7ENv6pjAheg
acHQjR37K6spfVJ0g9JluADVyhSjn7iPqUwCY3EtG772cr+0RJXzZgnVHjkTfHs8
h2XHl2dVT4Phkbq8T2ocehxep0HcLUJJn2ecCCld9UhqmxipPVIuUra502RSo2x1
8dbSX8XYVkYB0ISMsQzEx1EY+hwUVb7BC3G2scF2g28Q0tfn0qnc9vCH5ZmqXsyZ
+kPPi+uku2T5XhJLlz10pYgt97DdtYvsQjPf204qNYeNRqZ4Hth8TEiHkVbPGgV0
zjWtFlLVR24IzRiCf7oCtItVYGIB0BrO0vFZRvZkBx17TMADvLUb3PWsJDz7b/uO
ZgOb6IjsUFGEVhV/bm4PksldgXiq+KY7NXVb1rr0pFxpRh56HOXxzJkY7YCnqb7h
wF93w3SRMjGbdyOof5x9lwmONav0EPVUMyOdoupu00DRAZxafuwaOwVfwQmIev0E
HcXfY1eMoVtkYHt7
-----END CERTIFICATE-----
