Certificate:
    Data:
        Version: 3 (0x2)
        Serial Number:
            cc:cc:aa:aa:77:77:00:00
        Signature Algorithm: sha256WithRSAEncryption
        Issuer: C=PK, ST=I-SELF, O=AUTHORITY, CN=galaxy
        Validity
            Not Before: Jul 11 11:25:18 2021 GMT
            Not After : Jul 11 11:25:18 2023 GMT
        Subject: C=PK, ST=I-SELF, O=asteroid, CN=meteor
        Subject Public Key Info:
            Public Key Algorithm: rsaEncryption
                RSA Public-Key: (2048 bit)
                Modulus:
                    00:bc:94:90:f0:ec:de:28:1d:7f:1b:5f:8e:c4:2f:
                    8e:83:35:35:3a:ed:e8:e7:4e:2f:ae:47:9d:b8:c4:
                    5e:8b:75:48:61:71:8b:a8:9a:ac:9e:80:6d:8c:3c:
                    3e:b0:9e:da:3d:58:ae:ac:b7:c8:22:6c:5d:f6:29:
                    d3:c8:86:1d:ed:45:ce:ae:ca:fa:45:dd:8a:e4:7a:
                    1a:9b:45:ff:df:4a:28:fb:76:fc:6c:ac:f1:61:88:
                    40:d2:e0:84:fa:1d:43:81:ba:e0:37:13:51:e3:25:
                    16:5c:8c:f5:66:03:1c:4d:d4:78:5b:67:ce:3c:3d:
                    c5:12:84:a2:bb:36:1c:a5:8d:82:a2:54:65:03:48:
                    99:2c:df:a9:59:7b:84:0c:e8:e8:bc:1b:bf:e2:ca:
                    5e:62:7a:b1:d0:5f:ea:e0:63:4e:fd:54:7f:5d:c8:
                    3a:0b:8e:0e:ed:0d:df:3c:71:ed:ef:40:2d:21:5f:
                    be:34:ee:75:84:c3:e9:12:9b:a5:27:c1:da:7f:19:
                    d6:b2:ca:c6:f3:bf:2c:a0:0d:d7:83:25:26:20:49:
                    db:f5:b3:67:ab:60:ef:bb:c9:ae:f2:65:6a:f0:f9:
                    11:a8:8c:08:a4:ee:87:73:24:07:06:b7:21:3c:2a:
                    8c:70:99:51:9d:a8:03:5d:0a:25:57:e5:3f:bc:86:
                    88:9b
                Exponent: 65537 (0x10001)
        X509v3 extensions:
            X509v3 Basic Constraints: 
                CA:FALSE
            X509v3 Subject Key Identifier: 
                3F:B5:EA:2A:5D:98:03:F9:1D:F8:79:80:AA:2D:F5:E7:09:B8:A6:07
            X509v3 Extended Key Usage: 
                TLS Web Server Authentication
            X509v3 Key Usage: 
                Digital Signature, Key Encipherment
    Signature Algorithm: sha256WithRSAEncryption
         1c:f5:c1:3a:6e:82:0c:2d:09:19:0f:39:f0:75:82:d4:20:4c:
         0a:70:30:ca:ca:98:4f:55:ce:a8:a8:7a:1b:6d:78:05:15:23:
         96:50:5f:3e:4f:77:f7:f2:22:d6:ed:6a:d1:c4:af:29:ad:b4:
         d0:c3:5b:39:6e:0e:5a:7f:75:f9:56:e7:13:33:16:4b:67:10:
         c6:cf:a5:f4:9d:b9:27:ef:26:19:df:e2:3d:18:a2:f7:72:25:
         35:de:4a:5f:fc:a3:7f:82:73:c0:88:39:d4:94:45:40:06:38:
         42:9f:43:c3:86:d4:a1:db:d7:23:23:77:ad:75:90:d0:ae:91:
         26:01:f9:c2:21:ad:49:db:82:1c:62:96:22:a2:8d:0c:ca:ca:
         cd:23:1f:8b:60:7d:6d:12:bc:a7:38:21:2c:8b:e9:98:ff:44:
         3b:e5:42:db:4e:8d:b8:47:e7:d6:bd:3d:ea:14:b1:08:32:1a:
         e9:32:f2:e2:a3:9d:85:f9:f3:97:23:3e:08:6b:5b:1a:3d:28:
         80:00:13:89:1f:2d:10:16:ac:1c:67:94:d2:cb:89:44:4d:90:
         2a:c6:2e:ac:2d:cc:33:b5:93:07:15:68:3c:2e:5c:3a:0f:55:
         b8:17:34:7b:83:28:15:f2:42:49:16:e4:41:17:6c:7c:af:2b:
         55:68:67:cf:1c:c9:12:9b:21:0d:b1:45:23:10:0c:bf:aa:03:
         30:4e:ba:84:61:c6:f7:b6:27:48:fe:e4:f4:ef:4a:57:60:41:
         ab:7b:36:80:c0:4b:0c:e8:53:df:d4:c1:78:5e:9b:36:41:b4:
         43:94:6c:25:16:3c:ba:aa:67:35:0f:34:14:25:4e:b7:00:ad:
         23:21:f4:82:e4:f7:be:52:aa:5b:6e:1b:df:27:32:02:56:1b:
         f0:a2:4a:df:7f:77:1b:5a:c6:79:ac:3e:96:b1:e8:79:31:7e:
         bc:22:83:db:b3:7a:0f:f6:6d:d4:7c:f0:2d:af:24:c5:58:94:
         87:77:25:2f:26:dc:64:e3:0b:1d:81:6f:cc:ef:99:bf:a2:1b:
         53:2f:cf:c6:8b:04:e5:52:71:ce:ec:58:03:ad:b3:e2:3f:e4:
         3b:94:81:ff:a3:6f:4e:fb:44:56:84:f4:5c:38:95:f9:9d:a4:
         d2:ea:ce:97:5c:17:c9:93:68:2d:61:2d:42:f7:d6:d8:ee:7b:
         18:02:b9:f5:f0:58:43:1c:ec:63:51:65:ee:a5:93:6d:9f:f4:
         f6:a0:15:15:5d:4a:23:8b:a8:05:0c:3a:60:72:6c:c2:13:3a:
         dd:2e:09:89:b8:64:3f:f1:dd:1f:bd:da:b3:88:76:3c:f3:14:
         18:8e:4a:b1:3f:52:52:fa
-----BEGIN CERTIFICATE-----
MIIEVjCCAj6gAwIBAgIJAMzMqqp3dwAAMA0GCSqGSIb3DQEBCwUAMEMxCzAJBgNV
BAYTAlBLMQ8wDQYDVQQIEwZJLVNFTEYxEjAQBgNVBAoTCUFVVEhPUklUWTEPMA0G
A1UEAxMGZ2FsYXh5MB4XDTIxMDcxMTExMjUxOFoXDTIzMDcxMTExMjUxOFowQjEL
MAkGA1UEBhMCUEsxDzANBgNVBAgTBkktU0VMRjERMA8GA1UEChMIYXN0ZXJvaWQx
DzANBgNVBAMTBm1ldGVvcjCCASIwDQYJKoZIhvcNAQEBBQADggEPADCCAQoCggEB
ALyUkPDs3igdfxtfjsQvjoM1NTrt6OdOL65HnbjEXot1SGFxi6iarJ6AbYw8PrCe
2j1Yrqy3yCJsXfYp08iGHe1Fzq7K+kXdiuR6GptF/99KKPt2/Gys8WGIQNLghPod
Q4G64DcTUeMlFlyM9WYDHE3UeFtnzjw9xRKEors2HKWNgqJUZQNImSzfqVl7hAzo
6Lwbv+LKXmJ6sdBf6uBjTv1Uf13IOguODu0N3zxx7e9ALSFfvjTudYTD6RKbpSfB
2n8Z1rLKxvO/LKAN14MlJiBJ2/WzZ6tg77vJrvJlavD5EaiMCKTuh3MkBwa3ITwq
jHCZUZ2oA10KJVflP7yGiJsCAwEAAaNOMEwwCQYDVR0TBAIwADAdBgNVHQ4EFgQU
P7XqKl2YA/kd+HmAqi315wm4pgcwEwYDVR0lBAwwCgYIKwYBBQUHAwEwCwYDVR0P
BAQDAgWgMA0GCSqGSIb3DQEBCwUAA4ICAQAc9cE6boIMLQkZDznwdYLUIEwKcDDK
yphPVc6oqHobbXgFFSOWUF8+T3f38iLW7WrRxK8prbTQw1s5bg5af3X5VucTMxZL
ZxDGz6X0nbkn7yYZ3+I9GKL3ciU13kpf/KN/gnPAiDnUlEVABjhCn0PDhtSh29cj
I3etdZDQrpEmAfnCIa1J24IcYpYioo0MysrNIx+LYH1tErynOCEsi+mY/0Q75ULb
To24R+fWvT3qFLEIMhrpMvLio52F+fOXIz4Ia1saPSiAABOJHy0QFqwcZ5TSy4lE
TZAqxi6sLcwztZMHFWg8Llw6D1W4FzR7gygV8kJJFuRBF2x8rytVaGfPHMkSmyEN
sUUjEAy/qgMwTrqEYcb3tidI/uT070pXYEGrezaAwEsM6FPf1MF4Xps2QbRDlGwl
Fjy6qmc1DzQUJU63AK0jIfSC5Pe+UqpbbhvfJzICVhvwokrff3cbWsZ5rD6Wseh5
MX68IoPbs3oP9m3UfPAtryTFWJSHdyUvJtxk4wsdgW/M75m/ohtTL8/GiwTlUnHO
7FgDrbPiP+Q7lIH/o29O+0RWhPRcOJX5naTS6s6XXBfJk2gtYS1C99bY7nsYArn1
8FhDHOxjUWXupZNtn/T2oBUVXUoji6gFDDpgcmzCEzrdLgmJuGQ/8d0fvdqziHY8
8xQYjkqxP1JS+g==
-----END CERTIFICATE-----
