Certificate:
    Data:
        Version: 3 (0x2)
        Serial Number:
            cc:cc:aa:aa:77:77:00:00
        Signature Algorithm: sha256WithRSAEncryption
        Issuer: C=PK, ST=I-SELF, O=AUTHORITY, CN=alien
        Validity
            Not Before: Jul 11 11:03:18 2021 GMT
            Not After : Jul 11 11:03:18 2023 GMT
        Subject: C=PK, ST=I-SELF, O=acient, CN=spacestation
        Subject Public Key Info:
            Public Key Algorithm: rsaEncryption
                RSA Public-Key: (2048 bit)
                Modulus:
                    00:ef:bf:af:75:73:cc:0f:05:7f:83:1b:a2:07:65:
                    ef:fe:49:a9:0c:36:92:1d:48:28:a2:19:40:39:02:
                    63:ea:10:e9:e9:55:86:0f:03:5a:a8:62:66:61:c1:
                    ae:58:92:58:2b:0c:b7:bb:c7:c2:e8:7c:2d:2a:0f:
                    d4:0f:25:55:f4:25:2d:37:5e:b9:f2:e3:b4:c7:a2:
                    c0:2b:1d:7a:f0:de:0f:e7:a8:71:07:5a:f3:91:a0:
                    cd:c8:ad:d7:31:d9:ad:3d:d9:99:3b:27:a8:d6:bd:
                    1f:54:f7:9e:4c:80:3f:74:e6:67:8a:3b:89:52:f2:
                    b5:17:b0:ce:a8:df:ba:a3:d2:f8:e7:56:99:9c:d2:
                    33:4e:95:b2:24:5b:33:7f:72:6c:a8:19:a4:ae:13:
                    73:50:10:33:f6:d2:f2:5b:ec:c7:f0:60:8f:c9:4a:
                    62:4e:df:67:78:fe:9b:db:48:e2:82:20:f3:20:63:
                    6e:50:b4:77:d7:b4:a6:a3:44:24:5a:6b:a2:86:a6:
                    75:fe:67:db:e6:1a:4e:cb:fc:58:6d:6f:24:b6:eb:
                    92:9e:15:1e:6d:ea:2f:28:41:20:aa:e8:cd:6d:51:
                    71:fa:83:9d:23:e2:f2:92:55:3d:64:60:31:e8:42:
                    bc:0b:81:0f:3b:6b:00:f5:08:a1:eb:94:ba:ff:eb:
                    0e:c1
                Exponent: 65537 (0x10001)
        X509v3 extensions:
            X509v3 Basic Constraints: 
                CA:FALSE
            X509v3 Subject Key Identifier: 
                B7:D6:C9:55:36:3B:68:80:90:B1:70:82:AA:CB:D4:7E:04:8B:2A:AE
            X509v3 Extended Key Usage: 
                TLS Web Server Authentication
            X509v3 Key Usage: 
                Digital Signature, Key Encipherment
    Signature Algorithm: sha256WithRSAEncryption
         04:7e:ca:94:6b:67:6b:16:80:f8:5f:35:0f:ec:f5:fe:f4:5a:
         bf:8c:f8:53:72:11:00:d6:85:52:ec:54:78:fd:c3:87:26:c0:
         1a:df:d3:45:65:b6:e3:a3:3a:21:90:0d:0b:af:e7:3b:c9:d2:
         ab:69:f1:2b:a7:0d:79:f5:50:2a:fa:bf:f0:2e:e1:95:62:fa:
         52:b5:83:e1:a3:14:fc:65:bf:e7:3c:77:be:a7:2e:78:74:0a:
         e8:e7:bc:51:85:99:36:57:2b:bf:ce:43:a0:d3:78:08:76:aa:
         3c:16:7f:7a:b9:7d:e7:36:b4:00:1e:ae:29:c7:bf:92:ff:71:
         d3:6b:89:1e:26:c0:d6:e4:d9:75:87:9c:6d:14:18:0f:cf:de:
         54:62:f0:78:b2:78:0f:3d:2b:99:f2:0e:74:ed:8d:53:30:b4:
         a5:51:ec:2d:f3:39:33:38:72:29:c9:f3:42:89:8b:92:be:98:
         04:04:16:91:63:e4:90:23:35:f6:08:e1:cd:57:72:1a:6e:b0:
         28:94:9f:14:e6:86:bd:32:d8:0b:64:de:ac:aa:09:87:b3:ab:
         d4:6c:fb:16:40:68:da:88:42:4b:5e:b2:10:18:d2:a6:d2:41:
         1e:7b:3d:59:1d:8c:a6:9d:3d:20:eb:9b:c1:4d:56:c0:2b:1b:
         df:0a:e5:19:c1:e8:01:3f:f6:43:88:39:b4:73:52:61:9a:0c:
         26:c1:a8:3d:57:bb:19:bd:0e:5d:2c:51:b2:8e:de:fa:d7:9d:
         d3:7c:6f:1d:5a:57:ab:5b:3f:dd:25:b9:c8:ab:53:36:19:91:
         3c:98:bf:e8:5b:d5:61:f1:d6:30:b0:61:03:25:60:56:b1:01:
         1c:e4:26:32:a0:bd:8d:b2:60:22:cf:db:dc:55:0c:6b:55:0b:
         27:48:a5:d4:78:90:65:10:b2:b7:8c:32:6b:87:c3:23:17:ef:
         a7:a8:94:fc:3b:df:84:0c:75:04:77:27:32:ae:cf:9c:20:b0:
         fe:2f:70:08:05:73:e6:8a:b2:75:d9:80:15:d1:2f:c5:a5:96:
         59:6a:62:3e:91:4f:65:0a:ab:12:00:84:31:dd:78:52:12:f0:
         20:cf:f4:d9:30:b6:63:6d:66:e0:80:50:4f:8e:cc:32:25:12:
         41:57:e1:5c:e3:29:a5:49:31:73:a5:af:0a:85:0d:a4:d4:db:
         0f:f6:19:67:06:dd:b3:07:3b:06:7e:2f:a1:0f:fe:7a:9e:77:
         17:69:74:ad:32:0c:ee:22:aa:04:83:c5:2f:2e:b9:7e:80:a4:
         e3:52:0e:07:3b:dc:fe:14:c8:65:d7:e5:29:36:64:33:bb:ea:
         68:21:77:db:04:59:45:6d
-----BEGIN CERTIFICATE-----
MIIEWTCCAkGgAwIBAgIJAMzMqqp3dwAAMA0GCSqGSIb3DQEBCwUAMEIxCzAJBgNV
BAYTAlBLMQ8wDQYDVQQIEwZJLVNFTEYxEjAQBgNVBAoTCUFVVEhPUklUWTEOMAwG
A1UEAxMFYWxpZW4wHhcNMjEwNzExMTEwMzE4WhcNMjMwNzExMTEwMzE4WjBGMQsw
CQYDVQQGEwJQSzEPMA0GA1UECBMGSS1TRUxGMQ8wDQYDVQQKEwZhY2llbnQxFTAT
BgNVBAMTDHNwYWNlc3RhdGlvbjCCASIwDQYJKoZIhvcNAQEBBQADggEPADCCAQoC
ggEBAO+/r3VzzA8Ff4Mbogdl7/5JqQw2kh1IKKIZQDkCY+oQ6elVhg8DWqhiZmHB
rliSWCsMt7vHwuh8LSoP1A8lVfQlLTdeufLjtMeiwCsdevDeD+eocQda85Ggzcit
1zHZrT3ZmTsnqNa9H1T3nkyAP3TmZ4o7iVLytRewzqjfuqPS+OdWmZzSM06VsiRb
M39ybKgZpK4Tc1AQM/bS8lvsx/Bgj8lKYk7fZ3j+m9tI4oIg8yBjblC0d9e0pqNE
JFprooamdf5n2+YaTsv8WG1vJLbrkp4VHm3qLyhBIKrozW1RcfqDnSPi8pJVPWRg
MehCvAuBDztrAPUIoeuUuv/rDsECAwEAAaNOMEwwCQYDVR0TBAIwADAdBgNVHQ4E
FgQUt9bJVTY7aICQsXCCqsvUfgSLKq4wEwYDVR0lBAwwCgYIKwYBBQUHAwEwCwYD
VR0PBAQDAgWgMA0GCSqGSIb3DQEBCwUAA4ICAQAEfsqUa2drFoD4XzUP7PX+9Fq/
jPhTchEA1oVS7FR4/cOHJsAa39NFZbbjozohkA0Lr+c7ydKrafErpw159VAq+r/w
LuGVYvpStYPhoxT8Zb/nPHe+py54dAro57xRhZk2Vyu/zkOg03gIdqo8Fn96uX3n
NrQAHq4px7+S/3HTa4keJsDW5Nl1h5xtFBgPz95UYvB4sngPPSuZ8g507Y1TMLSl
Uewt8zkzOHIpyfNCiYuSvpgEBBaRY+SQIzX2COHNV3IabrAolJ8U5oa9MtgLZN6s
qgmHs6vUbPsWQGjaiEJLXrIQGNKm0kEeez1ZHYymnT0g65vBTVbAKxvfCuUZwegB
P/ZDiDm0c1Jhmgwmwag9V7sZvQ5dLFGyjt76153TfG8dWlerWz/dJbnIq1M2GZE8
mL/oW9Vh8dYwsGEDJWBWsQEc5CYyoL2NsmAiz9vcVQxrVQsnSKXUeJBlELK3jDJr
h8MjF++nqJT8O9+EDHUEdycyrs+cILD+L3AIBXPmirJ12YAV0S/FpZZZamI+kU9l
CqsSAIQx3XhSEvAgz/TZMLZjbWbggFBPjswyJRJBV+Fc4ymlSTFzpa8KhQ2k1NsP
9hlnBt2zBzsGfi+hD/56nncXaXStMgzuIqoEg8UvLrl+gKTjUg4HO9z+FMhl1+Up
NmQzu+poIXfbBFlFbQ==
-----END CERTIFICATE-----
