Certificate:
    Data:
        Version: 3 (0x2)
        Serial Number:
            cc:cc:aa:aa:77:77:00:01
        Signature Algorithm: sha256WithRSAEncryption
        Issuer: C=PK, ST=I-SELF, O=AUTHORITY, CN=ykkey
        Validity
            Not Before: Jul 11 10:44:18 2021 GMT
            Not After : Jul 11 10:44:18 2023 GMT
        Subject: C=PK, ST=I-SELF, O=rangeroo, CN=earth
        Subject Public Key Info:
            Public Key Algorithm: rsaEncryption
                RSA Public-Key: (2048 bit)
                Modulus:
                    00:e4:0d:5c:e5:05:b5:04:d0:25:51:86:40:2c:76:
                    f5:e3:55:2d:9f:3b:30:ec:b3:67:38:00:70:bc:4a:
                    ef:9d:72:71:1f:25:d1:fc:58:ea:68:96:a3:9d:d9:
                    30:5a:4a:68:4b:71:49:f2:f6:6d:de:92:b1:34:68:
                    c3:f0:76:a6:d5:8c:2c:ef:d8:fb:08:69:30:17:44:
                    a4:50:72:a7:61:00:f7:a6:ec:58:64:79:4a:e7:c8:
                    ee:e8:7e:2f:1c:7b:82:83:bf:07:b8:3c:52:4a:c4:
                    72:60:95:26:29:43:26:cd:79:fd:4a:4d:7d:f8:c7:
                    d7:dc:8c:a7:9f:b6:56:5e:a4:1d:53:1a:26:d5:56:
                    49:c0:31:7f:4c:36:7e:89:2d:a9:ac:7e:7f:39:a4:
                    d3:d1:4d:27:50:83:23:69:15:32:ca:dd:58:4e:2c:
                    dc:a0:f6:7d:a9:e7:a7:0b:9f:2c:0c:34:77:25:7e:
                    f1:5f:11:7d:93:f7:5f:83:ea:cd:a6:4f:cd:e2:5f:
                    78:3f:71:83:1c:fb:90:48:99:82:90:3c:c3:0e:5f:
                    31:79:34:3f:a7:bb:52:00:d6:b9:b6:d0:d6:ba:7c:
                    48:1d:5e:c3:dd:af:d8:50:a4:36:a5:d5:4f:ea:a8:
                    71:a2:ed:c9:8f:94:a1:45:3d:9c:91:d2:20:c5:db:
                    bd:5d
                Exponent: 65537 (0x10001)
        X509v3 extensions:
            X509v3 Basic Constraints: 
                CA:FALSE
            X509v3 Subject Key Identifier: 
                C0:90:E7:66:BA:1C:06:85:9B:3B:98:AA:92:7E:10:B5:22:0C:65:BD
            X509v3 Extended Key Usage: 
                TLS Web Server Authentication
            X509v3 Key Usage: 
                Digital Signature, Key Encipherment
    Signature Algorithm: sha256WithRSAEncryption
         6a:54:c2:4d:09:12:94:a7:0a:86:63:40:96:63:91:1f:31:63:
         4c:b2:e9:fa:b9:73:6a:c6:78:fb:e8:7a:04:1b:46:f3:34:50:
         a5:af:3d:8a:b2:03:d0:fe:6e:9a:3b:38:a6:61:87:7d:d7:69:
         96:d9:43:48:16:2c:93:b2:7d:e3:81:94:cf:a5:5f:72:e7:73:
         d9:86:ee:d6:bf:9d:dd:e0:06:4e:34:87:ba:be:d3:f7:16:b4:
         80:3c:62:5e:1a:60:1f:99:ff:87:63:e5:b1:10:c6:6d:8f:56:
         e1:89:23:30:af:d5:59:50:a3:7f:67:c7:aa:55:e3:87:4f:e8:
         00:a2:03:b1:b6:67:23:ec:de:53:bc:22:08:66:d7:f3:66:6d:
         3c:a7:2c:7f:9b:19:13:39:a4:6d:1e:a7:1a:a6:c3:24:a7:df:
         67:95:c0:99:1f:43:44:c4:84:51:0a:1d:03:20:97:93:f4:bf:
         74:82:0c:9e:fd:d7:a7:b0:8d:3b:0e:25:f2:38:19:d9:d8:fc:
         cf:95:0e:a5:05:09:41:68:af:31:b2:9e:b5:3c:ec:be:45:1e:
         a9:6e:f7:2c:40:38:c5:5d:6d:4e:ef:ab:4d:6f:73:c2:fe:08:
         1a:08:e0:6a:4f:41:2e:15:0f:08:3d:f4:f5:19:e8:e2:b1:f1:
         42:96:18:de:a2:f2:58:1d:cc:d0:b4:29:0e:b1:83:e0:4a:39:
         4c:b5:c5:c0:1c:fe:c3:ca:2f:df:a6:2f:f6:8c:73:67:61:df:
         90:d4:9d:0c:04:08:28:fe:14:f4:08:35:d7:a5:14:72:ad:73:
         4c:39:70:8f:9e:73:fa:6e:7d:ff:49:2e:0d:b6:1e:c6:5f:8b:
         bf:8e:bf:f5:ed:0c:51:70:ef:e2:01:22:ed:6d:44:cb:1a:6a:
         1b:b3:39:c6:91:23:2d:92:5d:f1:74:9e:56:c6:be:fa:bc:2b:
         ce:75:98:fa:73:6d:66:7e:49:f9:1b:09:44:d4:91:c3:85:35:
         fa:ad:b1:59:5d:a2:c0:1d:16:c0:a4:bc:70:dd:ec:4b:9c:0e:
         eb:d2:a3:33:34:d4:af:40:b8:ae:19:6e:c1:bf:57:9f:27:b8:
         61:1e:4d:a3:62:91:86:68:07:5f:13:19:b8:43:f1:22:15:15:
         12:b4:34:73:19:16:7a:22:31:da:8d:df:0a:9c:b5:8e:dc:58:
         e8:d4:3c:b5:84:41:30:06:42:95:1c:f9:c1:f5:af:68:13:a0:
         a2:14:2d:68:98:6c:4a:72:ed:4f:59:bd:85:27:dc:f0:a9:af:
         96:bf:0c:bf:73:36:04:8d:b1:12:5d:aa:b0:08:c9:ab:b4:11:
         f3:a2:36:56:96:6f:91:29
-----BEGIN CERTIFICATE-----
MIIEVDCCAjygAwIBAgIJAMzMqqp3dwABMA0GCSqGSIb3DQEBCwUAMEIxCzAJBgNV
BAYTAlBLMQ8wDQYDVQQIEwZJLVNFTEYxEjAQBgNVBAoTCUFVVEhPUklUWTEOMAwG
A1UEAxMFeWtrZXkwHhcNMjEwNzExMTA0NDE4WhcNMjMwNzExMTA0NDE4WjBBMQsw
CQYDVQQGEwJQSzEPMA0GA1UECBMGSS1TRUxGMREwDwYDVQQKEwhyYW5nZXJvbzEO
MAwGA1UEAxMFZWFydGgwggEiMA0GCSqGSIb3DQEBAQUAA4IBDwAwggEKAoIBAQDk
DVzlBbUE0CVRhkAsdvXjVS2fOzDss2c4AHC8Su+dcnEfJdH8WOpolqOd2TBaSmhL
cUny9m3ekrE0aMPwdqbVjCzv2PsIaTAXRKRQcqdhAPem7FhkeUrnyO7ofi8ce4KD
vwe4PFJKxHJglSYpQybNef1KTX34x9fcjKeftlZepB1TGibVVknAMX9MNn6JLams
fn85pNPRTSdQgyNpFTLK3VhOLNyg9n2p56cLnywMNHclfvFfEX2T91+D6s2mT83i
X3g/cYMc+5BImYKQPMMOXzF5ND+nu1IA1rm20Na6fEgdXsPdr9hQpDal1U/qqHGi
7cmPlKFFPZyR0iDF271dAgMBAAGjTjBMMAkGA1UdEwQCMAAwHQYDVR0OBBYEFMCQ
52a6HAaFmzuYqpJ+ELUiDGW9MBMGA1UdJQQMMAoGCCsGAQUFBwMBMAsGA1UdDwQE
AwIFoDANBgkqhkiG9w0BAQsFAAOCAgEAalTCTQkSlKcKhmNAlmORHzFjTLLp+rlz
asZ4++h6BBtG8zRQpa89irID0P5umjs4pmGHfddpltlDSBYsk7J944GUz6Vfcudz
2Ybu1r+d3eAGTjSHur7T9xa0gDxiXhpgH5n/h2PlsRDGbY9W4YkjMK/VWVCjf2fH
qlXjh0/oAKIDsbZnI+zeU7wiCGbX82ZtPKcsf5sZEzmkbR6nGqbDJKffZ5XAmR9D
RMSEUQodAyCXk/S/dIIMnv3Xp7CNOw4l8jgZ2dj8z5UOpQUJQWivMbKetTzsvkUe
qW73LEA4xV1tTu+rTW9zwv4IGgjgak9BLhUPCD309Rno4rHxQpYY3qLyWB3M0LQp
DrGD4Eo5TLXFwBz+w8ov36Yv9oxzZ2HfkNSdDAQIKP4U9Ag116UUcq1zTDlwj55z
+m59/0kuDbYexl+Lv46/9e0MUXDv4gEi7W1EyxpqG7M5xpEjLZJd8XSeVsa++rwr
znWY+nNtZn5J+RsJRNSRw4U1+q2xWV2iwB0WwKS8cN3sS5wO69KjMzTUr0C4rhlu
wb9Xnye4YR5No2KRhmgHXxMZuEPxIhUVErQ0cxkWeiIx2o3fCpy1jtxY6NQ8tYRB
MAZClRz5wfWvaBOgohQtaJhsSnLtT1m9hSfc8Kmvlr8Mv3M2BI2xEl2qsAjJq7QR
86I2VpZvkSk=
-----END CERTIFICATE-----
